; Function Attrs: null_pointer_is_valid sspstrong uwtable
define internal i32 @dissect_h225_T_h245Ip6(ptr noundef %0, i32 noundef %1, ptr noundef %2, ptr noundef %3, i32 noundef %4) #0 {
  %6 = alloca ptr, align 8
  call void @llvm.lifetime.start.p0(i64 8, ptr nonnull %6) #11
  tail call void @llvm.memcpy.p0.p0.i64(ptr noundef nonnull align 1 dereferenceable(16) @ipv6_address, ptr noundef nonnull align 1 dereferenceable(16) @ipv6_address_zeros, i64 16, i1 false)
  %7 = call i32 @dissect_per_octet_string(ptr noundef %0, i32 noundef %1, ptr noundef %2, ptr noundef %3, i32 noundef %4, i32 noundef 16, i32 noundef 16, i1 noundef zeroext false, ptr noundef nonnull %6)
  %8 = load ptr, ptr %6, align 8
  %.not = icmp eq ptr %8, null
  br i1 %.not, label %10, label %9

9:                                                ; preds = %5
  call void @tvb_get_ipv6(ptr noundef nonnull %8, i32 noundef 0, ptr noundef nonnull @ipv6_address)
  br label %10

10:                                               ; preds = %9, %5
  call void @llvm.lifetime.end.p0(i64 8, ptr nonnull %6) #11
  ret i32 %7
}